(lp0
(lp1
F1.0
aF-1.0
aI00
aa(lp2
F1.0000000000000002
aF1.0
aI00
aa(lp3
F-0.9999999999999998
aF1.0000000000000002
aI00
aa(lp4
F-1.0000000000000002
aF-0.9999999999999998
aI00
aa(lp5
F2.0
aF-2.000000000000001
aI00
aa(lp6
F2.0000000000000013
aF1.9999999999999991
aI00
aa(lp7
F-1.9999999999999987
aF2.0000000000000004
aI00
aa(lp8
F-2.0000000000000004
aF-1.9999999999999996
aI00
aa(lp9
F3.0
aF-3.000000000000003
aI00
aa(lp10
F3.000000000000003
aF2.999999999999997
aI00
aa(lp11
F-2.999999999999997
aF3.0000000000000004
aI00
aa(lp12
F-3.000000000000001
aF-2.9999999999999996
aI00
aa(lp13
F4.0
aF-4.000000000000006
aI00
aa(lp14
F4.000000000000006
aF3.999999999999994
aI00
aa(lp15
F-3.999999999999994
aF4.000000000000001
aI00
aa(lp16
F-4.000000000000001
aF-3.999999999999999
aI00
aa(lp17
F5.0
aF-5.00000000000001
aI00
aa(lp18
F5.000000000000011
aF4.99999999999999
aI00
aa(lp19
F-4.999999999999989
aF5.000000000000001
aI00
aa(lp20
F-5.000000000000001
aF-4.999999999999999
aI00
aa(lp21
F6.0
aF-6.000000000000015
aI00
aa(lp22
F6.000000000000015
aF5.999999999999985
aI00
aa(lp23
F-5.999999999999985
aF6.000000000000001
aI00
aa(lp24
F-6.000000000000002
aF-5.999999999999999
aI00
aa(lp25
F7.0
aF-7.00000000000002
aI00
aa(lp26
F7.000000000000021
aF6.99999999999998
aI00
aa(lp27
F-6.999999999999979
aF7.000000000000002
aI00
aa(lp28
F-7.000000000000002
aF-6.999999999999998
aI00
aa(lp29
F8.0
aF-8.000000000000027
aI00
aa(lp30
F8.000000000000028
aF7.999999999999973
aI00
aa(lp31
F-7.999999999999972
aF8.000000000000004
aI00
aa(lp32
F-8.000000000000002
aF-7.9999999999999964
aI00
aa(lp33
F9.0
aF-9.000000000000036
aI00
aa(lp34
F9.000000000000036
aF8.999999999999964
aI00
aa(lp35
F-8.999999999999964
aF9.000000000000002
aI00
aa(lp36
F-9.000000000000004
aF-8.999999999999998
aI00
aa(lp37
F10.0
aF-10.000000000000044
aI00
aa(lp38
F10.000000000000046
aF9.999999999999956
aI00
aa(lp39
F-9.999999999999954
aF10.000000000000002
aI00
aa(lp40
F-10.000000000000002
aF-9.999999999999998
aI00
aa(lp41
F11.0
aF-11.000000000000053
aI00
aa(lp42
F11.000000000000055
aF10.999999999999947
aI00
aa(lp43
F-10.999999999999945
aF11.000000000000004
aI00
aa(lp44
F-11.000000000000004
aF-10.999999999999996
aI00
aa(lp45
F12.0
aF-12.000000000000064
aI00
aa(lp46
F12.000000000000066
aF11.999999999999936
aI00
aa(lp47
F-11.999999999999934
aF12.000000000000004
aI00
aa(lp48
F-12.000000000000004
aF-11.999999999999996
aI00
aa(lp49
F13.0
aF-13.000000000000076
aI00
aa(lp50
F13.000000000000078
aF12.999999999999924
aI00
aa(lp51
F-12.999999999999922
aF13.000000000000004
aI00
aa(lp52
F-13.000000000000004
aF-12.999999999999996
aI00
aa(lp53
F14.0
aF-14.000000000000089
aI00
aa(lp54
F14.00000000000009
aF13.999999999999911
aI00
aa(lp55
F-13.99999999999991
aF14.000000000000004
aI00
aa(lp56
F-14.000000000000004
aF-13.999999999999996
aI00
aa(lp57
F15.0
aF-15.000000000000103
aI00
aa(lp58
F15.000000000000105
aF14.999999999999897
aI00
aa(lp59
F-14.999999999999895
aF15.000000000000004
aI00
aa(lp60
F-15.000000000000004
aF-14.999999999999996
aI00
aa(lp61
F16.0
aF-16.000000000000117
aI00
aa(lp62
F16.00000000000012
aF15.999999999999883
aI00
aa(lp63
F-15.99999999999988
aF16.000000000000004
aI00
aa(lp64
F-16.000000000000004
aF-15.999999999999996
aI00
aa(lp65
F17.0
aF-17.000000000000135
aI00
aa(lp66
F17.000000000000135
aF16.999999999999865
aI00
aa(lp67
F-16.999999999999865
aF17.000000000000004
aI00
aa(lp68
F-17.000000000000004
aF-16.999999999999996
aI00
aa(lp69
F18.0
aF-18.00000000000015
aI00
aa(lp70
F18.000000000000153
aF17.99999999999985
aI00
aa(lp71
F-17.999999999999847
aF18.000000000000004
aI00
aa(lp72
F-18.000000000000004
aF-17.999999999999996
aI00
aa(lp73
F19.0
aF-19.000000000000167
aI00
aa(lp74
F19.00000000000017
aF18.999999999999833
aI00
aa(lp75
F-18.99999999999983
aF19.000000000000004
aI00
aa(lp76
F-19.000000000000004
aF-18.999999999999996
aI00
aa(lp77
F20.0
aF-20.000000000000185
aI00
aa(lp78
F20.00000000000019
aF19.999999999999815
aI00
aa(lp79
F-19.99999999999981
aF20.000000000000007
aI00
aa(lp80
F-20.000000000000004
aF-19.999999999999993
aI00
aa(lp81
F21.0
aF-21.000000000000206
aI00
aa(lp82
F21.00000000000021
aF20.999999999999794
aI00
aa(lp83
F-20.99999999999979
aF21.000000000000004
aI00
aa(lp84
F-21.000000000000004
aF-20.999999999999996
aI00
aa(lp85
F22.0
aF-22.000000000000227
aI00
aa(lp86
F22.000000000000227
aF21.999999999999773
aI00
aa(lp87
F-21.999999999999773
aF22.000000000000004
aI00
aa(lp88
F-22.000000000000007
aF-21.999999999999996
aI00
aa(lp89
F23.0
aF-23.00000000000025
aI00
aa(lp90
F23.000000000000252
aF22.99999999999975
aI00
aa(lp91
F-22.999999999999748
aF23.000000000000004
aI00
aa(lp92
F-23.000000000000004
aF-22.999999999999996
aI00
aa(lp93
F24.0
aF-24.00000000000027
aI00
aa(lp94
F24.000000000000274
aF23.99999999999973
aI00
aa(lp95
F-23.999999999999726
aF24.000000000000007
aI00
aa(lp96
F-24.000000000000007
aF-23.999999999999993
aI00
aa(lp97
F25.0
aF-25.000000000000295
aI00
aa(lp98
F25.0000000000003
aF24.999999999999705
aI00
aa(lp99
F-24.9999999999997
aF25.000000000000004
aI00
aa(lp100
F-25.000000000000004
aF-24.999999999999996
aI00
aa(lp101
F26.0
aF-26.00000000000032
aI00
aa(lp102
F26.000000000000323
aF25.99999999999968
aI00
aa(lp103
F-25.999999999999677
aF26.000000000000004
aI00
aa(lp104
F-26.000000000000004
aF-25.999999999999996
aI00
aa(lp105
F27.0
aF-27.000000000000345
aI00
aa(lp106
F27.000000000000348
aF26.999999999999655
aI00
aa(lp107
F-26.999999999999652
aF27.000000000000007
aI00
aa(lp108
F-27.000000000000007
aF-26.999999999999993
aI00
aa(lp109
F28.0
aF-28.00000000000037
aI00
aa(lp110
F28.000000000000373
aF27.99999999999963
aI00
aa(lp111
F-27.999999999999627
aF28.000000000000007
aI00
aa(lp112
F-28.000000000000007
aF-27.999999999999993
aI00
aa(lp113
F29.0
aF-29.000000000000398
aI00
aa(lp114
F29.0000000000004
aF28.999999999999602
aI00
aa(lp115
F-28.9999999999996
aF29.000000000000007
aI00
aa(lp116
F-29.000000000000007
aF-28.999999999999993
aI00
aa(lp117
F30.0
aF-30.000000000000426
aI00
aa(lp118
F30.00000000000043
aF29.999999999999574
aI00
aa(lp119
F-29.99999999999957
aF30.000000000000007
aI00
aa(lp120
F-30.000000000000007
aF-29.999999999999993
aI00
aa(lp121
F31.0
aF-31.000000000000455
aI00
aa(lp122
F31.00000000000046
aF30.999999999999545
aI00
aa(lp123
F-30.99999999999954
aF31.000000000000007
aI00
aa(lp124
F-31.000000000000007
aF-30.999999999999993
aI00
aa(lp125
F32.0
aF-32.00000000000048
aI00
aa(lp126
F32.00000000000049
aF31.999999999999517
aI00
aa(lp127
F-31.99999999999951
aF32.00000000000001
aI00
aa(lp128
F-32.00000000000001
aF-31.999999999999993
aI00
aa(lp129
F33.0
aF-33.00000000000052
aI00
aa(lp130
F33.00000000000052
aF32.99999999999948
aI00
aa(lp131
F-32.99999999999948
aF33.00000000000001
aI00
aa(lp132
F-33.000000000000014
aF-32.99999999999999
aI00
aa(lp133
F34.0
aF-34.00000000000055
aI00
aa(lp134
F34.000000000000554
aF33.99999999999945
aI00
aa(lp135
F-33.999999999999446
aF34.000000000000014
aI00
aa(lp136
F-34.00000000000001
aF-33.999999999999986
aI00
aa(lp137
F35.0
aF-35.00000000000058
aI00
aa(lp138
F35.00000000000059
aF34.99999999999942
aI00
aa(lp139
F-34.99999999999941
aF35.00000000000001
aI00
aa(lp140
F-35.00000000000001
aF-34.99999999999999
aI00
aa(lp141
F36.0
aF-36.00000000000062
aI01
aa(lp142
F36.00000000000062
aF35.99999999999938
aI01
aa(lp143
F-35.99999999999938
aF36.00000000000001
aI01
aa(lp144
F-36.000000000000014
aF-35.99999999999999
aI01
aa(lp145
F37.0
aF-37.000000000000654
aI01
aa(lp146
F37.000000000000654
aF36.999999999999346
aI01
aa(lp147
F-36.999999999999346
aF37.00000000000001
aI01
aa(lp148
F-37.000000000000014
aF-36.99999999999999
aI01
aa(lp149
F38.0
aF-38.00000000000069
aI01
aa(lp150
F38.000000000000696
aF37.99999999999931
aI01
aa(lp151
F-37.999999999999304
aF38.00000000000001
aI01
aa(lp152
F-38.00000000000001
aF-37.99999999999999
aI01
aa(lp153
F39.0
aF-39.000000000000725
aI01
aa(lp154
F39.00000000000073
aF38.999999999999275
aI01
aa(lp155
F-38.99999999999927
aF39.000000000000014
aI01
aa(lp156
F-39.00000000000001
aF-38.999999999999986
aI01
aa(lp157
F40.0
aF-40.00000000000077
aI01
aa(lp158
F40.00000000000077
aF39.99999999999923
aI01
aa(lp159
F-39.99999999999923
aF40.00000000000001
aI01
aa(lp160
F-40.000000000000014
aF-39.99999999999999
aI01
aa.