(lp0
(lp1
F0.0
aF0.0
aI00
aa(lp2
F4.781523779815179
aF-1.4618585236136814
aI00
aa(lp3
F-4.781523779815179
aF1.46185852361368
aI00
aa(lp4
F9.563047559630355
aF-2.9237170472273606
aI00
aa(lp5
F-9.563047559630359
aF2.923717047227358
aI00
aa(lp6
F14.344571339445533
aF-4.385575570841038
aI00
aa(lp7
F-14.344571339445537
aF4.385575570841034
aI00
aa(lp8
F19.12609511926071
aF-5.847434094454712
aI00
aa(lp9
F-19.126095119260718
aF5.847434094454707
aI00
aa(lp10
F23.907618899075885
aF-7.309292618068385
aI00
aa(lp11
F-23.9076188990759
aF7.309292618068378
aI00
aa(lp12
F28.68914267889106
aF-8.771151141682056
aI00
aa(lp13
F-28.68914267889108
aF8.771151141682045
aI00
aa(lp14
F33.47066645870624
aF-10.233009665295727
aI00
aa(lp15
F-33.470666458706255
aF10.23300966529571
aI00
aa(lp16
F38.252190238521415
aF-11.694868188909394
aI01
aa(lp17
F0.0
aF0.0
aI00
aa(lp18
F-4.145187862775208
aF2.7959645173537346
aI00
aa(lp19
F-6.053277816540656
aF12.612236351830374
aI00
aa(lp20
F2.334615735520546
aF25.047799940156
aI00
aa(lp21
F21.967159404473826
aF28.8639798476869
aI00
aa(lp22
F42.69309871834987
aF14.884157260918231
aI01
aa(lp23
F0.0
aF0.0
aI00
aa(lp24
F2.347357813929452
aF-4.414737964294636
aI00
aa(lp25
F-6.482118114659819
aF-9.10945359215354
aI00
aa(lp26
F-13.524191556448176
aF4.134760300730365
aI00
aa(lp27
F4.134760300730367
aF13.524191556448176
aI00
aa(lp28
F15.871549370377632
aF-8.549498265025
aI00
aa(lp29
F-10.616878415390179
aF-22.633645148601722
aI00
aa(lp30
F-27.048383112896357
aF8.269520601460727
aI00
aa(lp31
F8.26952060146073
aF27.04838311289636
aI00
aa(lp32
F29.39574092682582
aF-12.684258565755357
aI00
aa(lp33
F-14.751638716120535
aF-36.1578367050499
aI01
aa(lp34
F0.0
aF0.0
aI00
aa(lp35
F-4.8907380036690284
aF-1.0395584540887954
aI00
aa(lp36
F-13.277443683123266
aF4.406831896061477
aI00
aa(lp37
F-16.396119045389653
aF19.07904590706856
aI00
aa(lp38
F-5.503338345089114
aF35.85245726597704
aI00
aa(lp39
F18.950351673256023
aF41.05024953642102
aI01
aa(lp40
F0.0
aF0.0
aI00
aa(lp41
F2.347357813929454
aF4.414737964294634
aI00
aa(lp42
F12.341266084120411
aF4.763732931319644
aI00
aa(lp43
F20.290055047618488
aF-7.956988511026746
aI00
aa(lp44
F10.900623791900676
aF-25.61594036820529
aI00
aa(lp45
F-14.08414688357672
aF-26.488427785767826
aI00
aa(lp46
F-29.981724810572885
aF-1.0469849010750494
aI00
aa(lp47
F-13.550220113066725
aF29.85618084898741
aI00
aa(lp48
F26.42541296769711
aF31.252160717087484
aI00
aa(lp49
F50.27177985819138
aF-6.910003609951666
aI01
aa(lp50
F0.0
aF0.0
aI00
aa(lp51
F4.6025242672622015
aF1.9536556424463685
aI00
aa(lp52
F13.807572801786606
aF5.860966927339108
aI00
aa(lp53
F27.615145603573207
aF11.72193385467822
aI00
aa(lp54
F46.025242672622014
aF19.536556424463708
aI01
aa(lp55
F0.0
aF0.0
aI00
aa(lp56
F-2.5751903745502727
aF-4.285836503510561
aI00
aa(lp57
F2.575190374550271
aF4.285836503510561
aI00
aa(lp58
F-5.1503807491005436
aF-8.571673007021124
aI00
aa(lp59
F5.15038074910054
aF8.571673007021124
aI00
aa(lp60
F-7.725571123650811
aF-12.85750951053169
aI00
aa(lp61
F7.725571123650807
aF12.85750951053169
aI00
aa(lp62
F-10.300761498201078
aF-17.143346014042258
aI00
aa(lp63
F10.300761498201071
aF17.143346014042258
aI00
aa(lp64
F-12.875951872751342
aF-21.429182517552825
aI00
aa(lp65
F12.875951872751331
aF21.42918251755283
aI00
aa(lp66
F-15.451142247301606
aF-25.715019021063398
aI00
aa(lp67
F15.451142247301592
aF25.715019021063405
aI00
aa(lp68
F-18.026332621851864
aF-30.00085552457397
aI00
aa(lp69
F18.02633262185185
aF30.00085552457398
aI00
aa(lp70
F-20.601522996402117
aF-34.286692028084545
aI00
aa(lp71
F20.60152299640211
aF34.28669202808456
aI00
aa(lp72
F-23.17671337095237
aF-38.572528531595125
aI01
aa(lp73
F0.0
aF0.0
aI00
aa(lp74
F4.493970231495837
aF-2.191855733945385
aI00
aa(lp75
F5.191534968937097
aF-12.167496236543627
aI00
aa(lp76
F-7.244028619388521
aF-20.55538978860484
aI00
aa(lp77
F-25.21990954537187
aF-11.787966852823306
aI00
aa(lp78
F-26.963821388975028
aF13.151134403672298
aI00
aa(lp79
F-2.0926942123237957
aF29.92692150779473
aI00
aa(lp80
F29.36509740814707
aF14.58393137017706
aI00
aa(lp81
F32.15535635791213
aF-25.318630640215908
aI00
aa(lp82
F-5.151334407064702
aF-50.48231129639957
aI01
aa(lp83
F0.0
aF0.0
aI00
aa(lp84
F3.280295144952537
aF3.7735479011138597
aI00
aa(lp85
F13.157178550903915
aF5.337892551516168
aI00
aa(lp86
F26.0146880614356
aF-2.3876785721346465
aI00
aa(lp87
F32.52605115057874
aF-21.298050084120987
aI00
aa(lp88
F23.566852411946236
aF-44.63756074655104
aI01
aa(lp89
F0.0
aF0.0
aI00
aa(lp90
F-3.1466019552491864
aF3.8857298072848554
aI00
aa(lp91
F-2.972077890876349
aF13.884206758848768
aI00
aa(lp92
F6.868807543981262
aF25.204850462190347
aI00
aa(lp93
F26.62257435588402
aF28.333539762994963
aI00
aa(lp94
F48.05175687343683
aF15.457587890243607
aI01
aa.